target datalayout = "e-m:e-p270:32:32-p271:32:32-p272:64:64-i64:64-i128:128-f80:128-n8:16:32:64-S128"
target triple = "x86_64-pc-linux-gnu"

%struct.KDF_SSKDF = type { ptr, ptr, %struct.PROV_DIGEST, ptr, i64, ptr, i64, ptr, i64, i64, i32 }
%struct.PROV_DIGEST = type { ptr, ptr, ptr }
%struct.ossl_param_st = type { ptr, i32, ptr, i64, i64 }

@.str = private unnamed_addr constant [50 x i8] c"../openssl/providers/implementations/kdfs/sskdf.c\00", align 1
@.str.4 = private unnamed_addr constant [5 x i8] c"size\00", align 1
@__func__.sskdf_size = private unnamed_addr constant [11 x i8] c"sskdf_size\00", align 1

; Function Attrs: nounwind uwtable
define internal i64 @sskdf_size(ptr noundef %0) #0 {
  %2 = alloca i64, align 8
  %3 = alloca ptr, align 8
  %4 = alloca i32, align 4
  %5 = alloca ptr, align 8
  %6 = alloca i32, align 4
  store ptr %0, ptr %3, align 8, !tbaa !3
  call void @llvm.lifetime.start.p0(i64 4, ptr %4) #6
  call void @llvm.lifetime.start.p0(i64 8, ptr %5) #6
  store ptr null, ptr %5, align 8, !tbaa !29
  %7 = load ptr, ptr %3, align 8, !tbaa !3
  %8 = getelementptr inbounds nuw %struct.KDF_SSKDF, ptr %7, i32 0, i32 10
  %9 = load i32, ptr %8, align 8, !tbaa !24
  %10 = icmp ne i32 %9, 0
  br i1 %10, label %11, label %12

11:                                               ; preds = %1
  store i64 -1, ptr %2, align 8
  store i32 1, ptr %6, align 4
  br label %30

12:                                               ; preds = %1
  %13 = load ptr, ptr %3, align 8, !tbaa !3
  %14 = getelementptr inbounds nuw %struct.KDF_SSKDF, ptr %13, i32 0, i32 2
  %15 = call ptr @ossl_prov_digest_md(ptr noundef %14)
  store ptr %15, ptr %5, align 8, !tbaa !29
  %16 = load ptr, ptr %5, align 8, !tbaa !29
  %17 = icmp eq ptr %16, null
  br i1 %17, label %18, label %19

18:                                               ; preds = %12
  call void @ERR_new()
  call void @ERR_set_debug(ptr noundef @.str, i32 noundef 388, ptr noundef @__func__.sskdf_size)
  call void (i32, i32, ptr, ...) @ERR_set_error(i32 noundef 57, i32 noundef 129, ptr noundef null)
  store i64 0, ptr %2, align 8
  store i32 1, ptr %6, align 4
  br label %30

19:                                               ; preds = %12
  %20 = load ptr, ptr %5, align 8, !tbaa !29
  %21 = call i32 @EVP_MD_get_size(ptr noundef %20)
  store i32 %21, ptr %4, align 4, !tbaa !32
  %22 = load i32, ptr %4, align 4, !tbaa !32
  %23 = icmp sle i32 %22, 0
  br i1 %23, label %24, label %25

24:                                               ; preds = %19
  br label %28

25:                                               ; preds = %19
  %26 = load i32, ptr %4, align 4, !tbaa !32
  %27 = sext i32 %26 to i64
  br label %28

28:                                               ; preds = %25, %24
  %29 = phi i64 [ 0, %24 ], [ %27, %25 ]
  store i64 %29, ptr %2, align 8
  store i32 1, ptr %6, align 4
  br label %30

30:                                               ; preds = %28, %18, %11
  call void @llvm.lifetime.end.p0(i64 8, ptr %5) #6
  call void @llvm.lifetime.end.p0(i64 4, ptr %4) #6
  %31 = load i64, ptr %2, align 8
  ret i64 %31
}

; Function Attrs: inlinehint nounwind uwtable
define internal i32 @ossl_param_is_empty(ptr noundef %0) #5 {
  %2 = alloca ptr, align 8
  store ptr %0, ptr %2, align 8, !tbaa !27
  %3 = load ptr, ptr %2, align 8, !tbaa !27
  %4 = icmp eq ptr %3, null
  br i1 %4, label %10, label %5

5:                                                ; preds = %1
  %6 = load ptr, ptr %2, align 8, !tbaa !27
  %7 = getelementptr inbounds nuw %struct.ossl_param_st, ptr %6, i32 0, i32 0
  %8 = load ptr, ptr %7, align 8, !tbaa !40
  %9 = icmp eq ptr %8, null
  br label %10

10:                                               ; preds = %5, %1
  %11 = phi i1 [ true, %1 ], [ %9, %5 ]
  %12 = zext i1 %11 to i32
  ret i32 %12
}

; Function Attrs: nounwind uwtable
define internal i32 @sskdf_common_get_ctx_params(ptr noundef %0, ptr noundef %1) #0 {
  %3 = alloca i32, align 4
  %4 = alloca ptr, align 8
  %5 = alloca ptr, align 8
  %6 = alloca ptr, align 8
  %7 = alloca i32, align 4
  store ptr %0, ptr %4, align 8, !tbaa !3
  store ptr %1, ptr %5, align 8, !tbaa !27
  call void @llvm.lifetime.start.p0(i64 8, ptr %6) #6
  %8 = load ptr, ptr %5, align 8, !tbaa !27
  %9 = call i32 @ossl_param_is_empty(ptr noundef %8)
  %10 = icmp ne i32 %9, 0
  br i1 %10, label %11, label %12

11:                                               ; preds = %2
  store i32 1, ptr %3, align 4
  store i32 1, ptr %7, align 4
  br label %25

12:                                               ; preds = %2
  %13 = load ptr, ptr %5, align 8, !tbaa !27
  %14 = call ptr @OSSL_PARAM_locate(ptr noundef %13, ptr noundef @.str.4)
  store ptr %14, ptr %6, align 8, !tbaa !27
  %15 = icmp ne ptr %14, null
  br i1 %15, label %16, label %24

16:                                               ; preds = %12
  %17 = load ptr, ptr %6, align 8, !tbaa !27
  %18 = load ptr, ptr %4, align 8, !tbaa !3
  %19 = call i64 @sskdf_size(ptr noundef %18)
  %20 = call i32 @OSSL_PARAM_set_size_t(ptr noundef %17, i64 noundef %19)
  %21 = icmp ne i32 %20, 0
  br i1 %21, label %23, label %22

22:                                               ; preds = %16
  store i32 0, ptr %3, align 4
  store i32 1, ptr %7, align 4
  br label %25

23:                                               ; preds = %16
  br label %24

24:                                               ; preds = %23, %12
  store i32 1, ptr %3, align 4
  store i32 1, ptr %7, align 4
  br label %25

25:                                               ; preds = %24, %22, %11
  call void @llvm.lifetime.end.p0(i64 8, ptr %6) #6
  %26 = load i32, ptr %3, align 4
  ret i32 %26
}