; Function Attrs: nounwind uwtable
define internal fastcc range(i32 0, 2) i32 @sskdf_common_get_ctx_params(ptr noundef %0, ptr noundef %1) unnamed_addr #0 {
  %3 = icmp eq ptr %1, null
  br i1 %3, label %ossl_param_is_empty.exit.thread, label %ossl_param_is_empty.exit

ossl_param_is_empty.exit:                         ; preds = %2
  %4 = load ptr, ptr %1, align 8, !tbaa !24
  %.not = icmp eq ptr %4, null
  br i1 %.not, label %ossl_param_is_empty.exit.thread, label %5

5:                                                ; preds = %ossl_param_is_empty.exit
  %6 = tail call ptr @OSSL_PARAM_locate(ptr noundef nonnull %1, ptr noundef nonnull @.str.4) #7
  %.not5 = icmp eq ptr %6, null
  br i1 %.not5, label %19, label %7

7:                                                ; preds = %5
  %8 = getelementptr inbounds nuw i8, ptr %0, i64 96
  %9 = load i32, ptr %8, align 8, !tbaa !23
  %.not.i = icmp eq i32 %9, 0
  br i1 %.not.i, label %10, label %sskdf_size.exit

10:                                               ; preds = %7
  %11 = getelementptr inbounds nuw i8, ptr %0, i64 16
  %12 = tail call ptr @ossl_prov_digest_md(ptr noundef nonnull %11) #7
  %13 = icmp eq ptr %12, null
  br i1 %13, label %14, label %15

14:                                               ; preds = %10
  tail call void @ERR_new() #7
  tail call void @ERR_set_debug(ptr noundef nonnull @.str, i32 noundef 388, ptr noundef nonnull @__func__.sskdf_size) #7
  tail call void (i32, i32, ptr, ...) @ERR_set_error(i32 noundef 57, i32 noundef 129, ptr noundef null) #7
  br label %sskdf_size.exit

15:                                               ; preds = %10
  %16 = tail call i32 @EVP_MD_get_size(ptr noundef nonnull %12) #7
  %narrow.i = tail call i32 @llvm.smax.i32(i32 %16, i32 0)
  %17 = zext nneg i32 %narrow.i to i64
  br label %sskdf_size.exit

sskdf_size.exit:                                  ; preds = %7, %14, %15
  %.0.i = phi i64 [ 0, %14 ], [ %17, %15 ], [ -1, %7 ]
  %18 = tail call i32 @OSSL_PARAM_set_size_t(ptr noundef nonnull %6, i64 noundef %.0.i) #7
  %.not6 = icmp eq i32 %18, 0
  br i1 %.not6, label %ossl_param_is_empty.exit.thread, label %19

19:                                               ; preds = %sskdf_size.exit, %5
  br label %ossl_param_is_empty.exit.thread

ossl_param_is_empty.exit.thread:                  ; preds = %2, %sskdf_size.exit, %ossl_param_is_empty.exit, %19
  %.0 = phi i32 [ 1, %19 ], [ 1, %ossl_param_is_empty.exit ], [ 0, %sskdf_size.exit ], [ 1, %2 ]
  ret i32 %.0
}